(lp0
(lp1
S'INVALID'
p2
a(S'NND'
p3
S'VBM'
p4
S'IN'
p5
g3
tp6
a(g3
S'VBS'
p7
S'STR'
p8
tp9
a(S'NN'
p10
S'VBD'
p11
S'NNO'
p12
tp13
a(g3
g4
g3
tp14
a(S'EX'
p15
g11
g3
g5
g3
tp16
a(g3
S'VBE'
p17
g3
tp18
a(g3
g11
g5
g3
tp19
a(g3
g11
g3
tp20
a(g15
g11
g3
tp21
a(g12
g11
g10
tp22
a(g3
S'VBH'
p23
g3
tp24
aa(dp25
S'be'
p26
g11
sS'live'
p27
g11
sS'run'
p28
g4
sS'eat'
p29
g17
sS'called'
p30
g11
sS'move'
p31
g4
sS'shout'
p32
g7
sS'walk'
p33
g4
sS'say'
p34
g7
sS'have'
p35
g23
sS'go'
p36
g4
sS'reply'
p37
g7
sS'come'
p38
g4
sS'tell'
p39
g7
sa(dp40
S'top'
p41
S'TOP'
p42
sS'on'
p43
S'ON'
p44
sS'near'
p45
S'NEAR'
p46
sS'right'
p47
S'RIGHT'
p48
sS'in'
p49
S'IN'
p50
sS'bottom'
p51
S'BOTTOM'
p52
sS'inside'
p53
S'INSIDE'
p54
sS'under'
p55
S'UNDER'
p56
sS'into'
p57
g54
sS'left'
p58
S'LEFT'
p59
sa.